target datalayout = "e-m:e-p270:32:32-p271:32:32-p272:64:64-i64:64-i128:128-f80:128-n8:16:32:64-S128"
target triple = "x86_64-pc-linux-gnu"

@hf_oap_1_interfaceid = internal global i32 0, align 4

; Function Attrs: null_pointer_is_valid sspstrong uwtable
define internal i32 @oap_1_tree_add_interface(ptr noundef %0, ptr noundef %1, i32 noundef %2) #0 {
  %4 = alloca ptr, align 8
  %5 = alloca ptr, align 8
  %6 = alloca i32, align 4
  %7 = alloca i8, align 1
  %8 = alloca i8, align 1
  store ptr %0, ptr %4, align 8
  store ptr %1, ptr %5, align 8
  store i32 %2, ptr %6, align 4
  call void @llvm.lifetime.start.p0(i64 1, ptr %7) #19
  call void @llvm.lifetime.start.p0(i64 1, ptr %8) #19
  %9 = load ptr, ptr %5, align 8
  %10 = load i32, ptr %6, align 4
  %11 = call zeroext i8 @tvb_get_uint8(ptr noundef %9, i32 noundef %10)
  store i8 %11, ptr %7, align 1
  %12 = load i8, ptr %7, align 1
  %13 = zext i8 %12 to i32
  %14 = and i32 %13, 3
  %15 = trunc i32 %14 to i8
  store i8 %15, ptr %8, align 1
  %16 = load i8, ptr %8, align 1
  %17 = zext i8 %16 to i32
  %18 = icmp eq i32 %17, 0
  br i1 %18, label %19, label %20

19:                                               ; preds = %3
  store i8 16, ptr %8, align 1
  br label %26

20:                                               ; preds = %3
  %21 = load i8, ptr %8, align 1
  %22 = zext i8 %21 to i32
  %23 = sub i32 %22, 1
  %24 = shl i32 1, %23
  %25 = trunc i32 %24 to i8
  store i8 %25, ptr %8, align 1
  br label %26

26:                                               ; preds = %20, %19
  %27 = load ptr, ptr %4, align 8
  %28 = load i32, ptr @hf_oap_1_interfaceid, align 4
  %29 = load ptr, ptr %5, align 8
  %30 = load i32, ptr %6, align 4
  %31 = load i8, ptr %8, align 1
  %32 = zext i8 %31 to i32
  %33 = add i32 1, %32
  %34 = call ptr @proto_tree_add_item(ptr noundef %27, i32 noundef %28, ptr noundef %29, i32 noundef %30, i32 noundef %33, i32 noundef 0)
  %35 = load i32, ptr %6, align 4
  %36 = add i32 %35, 1
  %37 = load i8, ptr %8, align 1
  %38 = zext i8 %37 to i32
  %39 = add i32 %36, %38
  call void @llvm.lifetime.end.p0(i64 1, ptr %8) #19
  call void @llvm.lifetime.end.p0(i64 1, ptr %7) #19
  ret i32 %39
}