; Function Attrs: null_pointer_is_valid sspstrong uwtable
define internal fastcc noundef i32 @oap_1_tree_add_interface(ptr noundef %0, ptr noundef %1, i32 noundef %2) unnamed_addr #0 {
  %4 = tail call zeroext i8 @tvb_get_uint8(ptr noundef %1, i32 noundef %2)
  %5 = and i8 %4, 3
  %6 = icmp eq i8 %5, 0
  %7 = zext nneg i8 %5 to i32
  %8 = add nsw i32 %7, -1
  %9 = shl nuw nsw i32 1, %8
  %10 = and i32 %9, 255
  %11 = load i32, ptr @hf_oap_1_interfaceid, align 4
  %12 = add nuw nsw i32 %10, 1
  %13 = select i1 %6, i32 17, i32 %12
  %14 = tail call ptr @proto_tree_add_item(ptr noundef %0, i32 noundef %11, ptr noundef %1, i32 noundef %2, i32 noundef %13, i32 noundef 0)
  %15 = add i32 %13, %2
  ret i32 %15
}